target datalayout = "e-m:e-p270:32:32-p271:32:32-p272:64:64-i64:64-i128:128-f80:128-n8:16:32:64-S128"
target triple = "x86_64-pc-linux-gnu"

%"class.llvm::SmallVectorBase" = type { ptr, i32, i32 }
%"struct.llvm::BooleanState.base" = type { %"struct.llvm::IntegerStateBase.base" }
%"struct.llvm::IntegerStateBase.base" = type <{ %"struct.llvm::AbstractState", i8, i8 }>
%"struct.llvm::AbstractState" = type { ptr }
%"class.llvm::DenseSet.155" = type { %"class.llvm::detail::DenseSetImpl.156" }
%"class.llvm::detail::DenseSetImpl.156" = type { %"class.llvm::DenseMap.157" }
%"class.llvm::DenseMap.157" = type <{ ptr, i32, i32, i32, [4 x i8] }>
%"class.llvm::SmallVectorImpl.161" = type { %"class.llvm::SmallVectorTemplateBase.162" }
%"class.llvm::SmallVectorTemplateBase.162" = type { %"class.llvm::SmallVectorTemplateCommon.163" }
%"class.llvm::SmallVectorTemplateCommon.163" = type { %"class.llvm::SmallVectorBase" }
%"class.llvm::detail::DenseSetPair.522" = type { ptr }
%"class.llvm::SetVector.935" = type { %"class.llvm::DenseSet.155", %"class.llvm::SmallVector.936" }
%"class.llvm::SmallVector.936" = type { %"class.llvm::SmallVectorImpl.161" }
%"struct.(anonymous namespace)::BooleanStateWithSetVector.938" = type { %"struct.llvm::BooleanState.base", %"class.llvm::SetVector.935" }

; Function Attrs: mustprogress nounwind uwtable
define linkonce_odr hidden noundef ptr @_ZNK4llvm8DenseMapIPNS_8CallBaseENS_6detail13DenseSetEmptyENS_12DenseMapInfoIS2_vEENS3_12DenseSetPairIS2_EEE10getBucketsEv(ptr noundef nonnull align 8 dereferenceable(20) %0) #1 comdat align 2 {
  %2 = alloca ptr, align 8
  store ptr %0, ptr %2, align 8
  %3 = load ptr, ptr %2, align 8
  %4 = getelementptr inbounds nuw %"class.llvm::DenseMap.157", ptr %3, i32 0, i32 0
  %5 = load ptr, ptr %4, align 8
  ret ptr %5
}

; Function Attrs: mustprogress nounwind uwtable
define linkonce_odr hidden noundef ptr @_ZN4llvm12DenseMapInfoIPNS_8CallBaseEvE15getTombstoneKeyEv() #1 comdat align 2 {
  %1 = alloca i64, align 8
  store i64 -2, ptr %1, align 8
  %2 = load i64, ptr %1, align 8
  %3 = shl i64 %2, 12
  store i64 %3, ptr %1, align 8
  %4 = load i64, ptr %1, align 8
  %5 = inttoptr i64 %4 to ptr
  ret ptr %5
}

; Function Attrs: mustprogress nounwind uwtable
define linkonce_odr hidden noundef ptr @_ZN4llvm12DenseMapInfoIPNS_8CallBaseEvE11getEmptyKeyEv() #1 comdat align 2 {
  %1 = alloca i64, align 8
  store i64 -1, ptr %1, align 8
  %2 = load i64, ptr %1, align 8
  %3 = shl i64 %2, 12
  store i64 %3, ptr %1, align 8
  %4 = load i64, ptr %1, align 8
  %5 = inttoptr i64 %4 to ptr
  ret ptr %5
}

; Function Attrs: mustprogress nounwind uwtable
define linkonce_odr hidden noundef i32 @_ZNK4llvm8DenseMapIPNS_8CallBaseENS_6detail13DenseSetEmptyENS_12DenseMapInfoIS2_vEENS3_12DenseSetPairIS2_EEE13getNumBucketsEv(ptr noundef nonnull align 8 dereferenceable(20) %0) #1 comdat align 2 {
  %2 = alloca ptr, align 8
  store ptr %0, ptr %2, align 8
  %3 = load ptr, ptr %2, align 8
  %4 = getelementptr inbounds nuw %"class.llvm::DenseMap.157", ptr %3, i32 0, i32 3
  %5 = load i32, ptr %4, align 8
  ret i32 %5
}

; Function Attrs: mustprogress nounwind uwtable
define linkonce_odr hidden noundef nonnull align 1 dereferenceable(1) ptr @_ZN4llvm6detail12DenseSetPairIPNS_8CallBaseEE9getSecondEv(ptr noundef nonnull align 8 dereferenceable(8) %0) #1 comdat align 2 {
  %2 = alloca ptr, align 8
  store ptr %0, ptr %2, align 8
  %3 = load ptr, ptr %2, align 8
  ret ptr %3
}

; Function Attrs: mustprogress nounwind uwtable
define linkonce_odr hidden noundef zeroext i1 @_ZN4llvm12DenseMapInfoIPNS_8CallBaseEvE7isEqualEPKS1_S5_(ptr noundef %0, ptr noundef %1) #1 comdat align 2 {
  %3 = alloca ptr, align 8
  %4 = alloca ptr, align 8
  store ptr %0, ptr %3, align 8
  store ptr %1, ptr %4, align 8
  %5 = load ptr, ptr %3, align 8
  %6 = load ptr, ptr %4, align 8
  %7 = icmp eq ptr %5, %6
  ret i1 %7
}

; Function Attrs: mustprogress nounwind uwtable
define linkonce_odr hidden noundef nonnull align 8 dereferenceable(8) ptr @_ZN4llvm6detail12DenseSetPairIPNS_8CallBaseEE8getFirstEv(ptr noundef nonnull align 8 dereferenceable(8) %0) #1 comdat align 2 {
  %2 = alloca ptr, align 8
  store ptr %0, ptr %2, align 8
  %3 = load ptr, ptr %2, align 8
  %4 = getelementptr inbounds nuw %"class.llvm::detail::DenseSetPair.522", ptr %3, i32 0, i32 0
  ret ptr %4
}

; Function Attrs: mustprogress nounwind uwtable
define linkonce_odr hidden noundef ptr @_ZN4llvm12DenseMapBaseINS_8DenseMapIPNS_8CallBaseENS_6detail13DenseSetEmptyENS_12DenseMapInfoIS3_vEENS4_12DenseSetPairIS3_EEEES3_S5_S7_S9_E13getBucketsEndEv(ptr noundef nonnull align 1 dereferenceable(1) %0) #1 comdat align 2 {
  %2 = alloca ptr, align 8
  store ptr %0, ptr %2, align 8
  %3 = load ptr, ptr %2, align 8
  %4 = call noundef ptr @_ZN4llvm12DenseMapBaseINS_8DenseMapIPNS_8CallBaseENS_6detail13DenseSetEmptyENS_12DenseMapInfoIS3_vEENS4_12DenseSetPairIS3_EEEES3_S5_S7_S9_E10getBucketsEv(ptr noundef nonnull align 1 dereferenceable(1) %3)
  %5 = call noundef i32 @_ZNK4llvm12DenseMapBaseINS_8DenseMapIPNS_8CallBaseENS_6detail13DenseSetEmptyENS_12DenseMapInfoIS3_vEENS4_12DenseSetPairIS3_EEEES3_S5_S7_S9_E13getNumBucketsEv(ptr noundef nonnull align 1 dereferenceable(1) %3)
  %6 = zext i32 %5 to i64
  %7 = getelementptr inbounds %"class.llvm::detail::DenseSetPair.522", ptr %4, i64 %6
  ret ptr %7
}

; Function Attrs: mustprogress nounwind uwtable
define linkonce_odr hidden noundef ptr @_ZN4llvm12DenseMapBaseINS_8DenseMapIPNS_8CallBaseENS_6detail13DenseSetEmptyENS_12DenseMapInfoIS3_vEENS4_12DenseSetPairIS3_EEEES3_S5_S7_S9_E10getBucketsEv(ptr noundef nonnull align 1 dereferenceable(1) %0) #1 comdat align 2 {
  %2 = alloca ptr, align 8
  store ptr %0, ptr %2, align 8
  %3 = load ptr, ptr %2, align 8
  %4 = call noundef ptr @_ZNK4llvm8DenseMapIPNS_8CallBaseENS_6detail13DenseSetEmptyENS_12DenseMapInfoIS2_vEENS3_12DenseSetPairIS2_EEE10getBucketsEv(ptr noundef nonnull align 8 dereferenceable(20) %3)
  ret ptr %4
}

; Function Attrs: mustprogress nounwind uwtable
define linkonce_odr hidden noundef ptr @_ZN4llvm12DenseMapBaseINS_8DenseMapIPNS_8CallBaseENS_6detail13DenseSetEmptyENS_12DenseMapInfoIS3_vEENS4_12DenseSetPairIS3_EEEES3_S5_S7_S9_E15getTombstoneKeyEv() #1 comdat align 2 {
  %1 = call noundef ptr @_ZN4llvm12DenseMapInfoIPNS_8CallBaseEvE15getTombstoneKeyEv()
  ret ptr %1
}

; Function Attrs: mustprogress nounwind uwtable
define linkonce_odr hidden noundef ptr @_ZN4llvm12DenseMapBaseINS_8DenseMapIPNS_8CallBaseENS_6detail13DenseSetEmptyENS_12DenseMapInfoIS3_vEENS4_12DenseSetPairIS3_EEEES3_S5_S7_S9_E11getEmptyKeyEv() #1 comdat align 2 {
  %1 = call noundef ptr @_ZN4llvm12DenseMapInfoIPNS_8CallBaseEvE11getEmptyKeyEv()
  ret ptr %1
}

; Function Attrs: mustprogress nounwind uwtable
define linkonce_odr hidden noundef i32 @_ZNK4llvm12DenseMapBaseINS_8DenseMapIPNS_8CallBaseENS_6detail13DenseSetEmptyENS_12DenseMapInfoIS3_vEENS4_12DenseSetPairIS3_EEEES3_S5_S7_S9_E13getNumBucketsEv(ptr noundef nonnull align 1 dereferenceable(1) %0) #1 comdat align 2 {
  %2 = alloca ptr, align 8
  store ptr %0, ptr %2, align 8
  %3 = load ptr, ptr %2, align 8
  %4 = call noundef i32 @_ZNK4llvm8DenseMapIPNS_8CallBaseENS_6detail13DenseSetEmptyENS_12DenseMapInfoIS2_vEENS3_12DenseSetPairIS2_EEE13getNumBucketsEv(ptr noundef nonnull align 8 dereferenceable(20) %3)
  ret i32 %4
}

; Function Attrs: mustprogress nounwind uwtable
define linkonce_odr hidden void @_ZN4llvm12DenseMapBaseINS_8DenseMapIPNS_8CallBaseENS_6detail13DenseSetEmptyENS_12DenseMapInfoIS3_vEENS4_12DenseSetPairIS3_EEEES3_S5_S7_S9_E10destroyAllEv(ptr noundef nonnull align 1 dereferenceable(1) %0) #1 comdat align 2 {
  %2 = alloca ptr, align 8
  %3 = alloca ptr, align 8
  %4 = alloca ptr, align 8
  %5 = alloca ptr, align 8
  %6 = alloca ptr, align 8
  store ptr %0, ptr %2, align 8
  %7 = load ptr, ptr %2, align 8
  %8 = call noundef i32 @_ZNK4llvm12DenseMapBaseINS_8DenseMapIPNS_8CallBaseENS_6detail13DenseSetEmptyENS_12DenseMapInfoIS3_vEENS4_12DenseSetPairIS3_EEEES3_S5_S7_S9_E13getNumBucketsEv(ptr noundef nonnull align 1 dereferenceable(1) %7)
  %9 = icmp eq i32 %8, 0
  br i1 %9, label %10, label %11

10:                                               ; preds = %1
  br label %41

11:                                               ; preds = %1
  %12 = call noundef ptr @_ZN4llvm12DenseMapBaseINS_8DenseMapIPNS_8CallBaseENS_6detail13DenseSetEmptyENS_12DenseMapInfoIS3_vEENS4_12DenseSetPairIS3_EEEES3_S5_S7_S9_E11getEmptyKeyEv()
  store ptr %12, ptr %3, align 8
  %13 = call noundef ptr @_ZN4llvm12DenseMapBaseINS_8DenseMapIPNS_8CallBaseENS_6detail13DenseSetEmptyENS_12DenseMapInfoIS3_vEENS4_12DenseSetPairIS3_EEEES3_S5_S7_S9_E15getTombstoneKeyEv()
  store ptr %13, ptr %4, align 8
  %14 = call noundef ptr @_ZN4llvm12DenseMapBaseINS_8DenseMapIPNS_8CallBaseENS_6detail13DenseSetEmptyENS_12DenseMapInfoIS3_vEENS4_12DenseSetPairIS3_EEEES3_S5_S7_S9_E10getBucketsEv(ptr noundef nonnull align 1 dereferenceable(1) %7)
  store ptr %14, ptr %5, align 8
  %15 = call noundef ptr @_ZN4llvm12DenseMapBaseINS_8DenseMapIPNS_8CallBaseENS_6detail13DenseSetEmptyENS_12DenseMapInfoIS3_vEENS4_12DenseSetPairIS3_EEEES3_S5_S7_S9_E13getBucketsEndEv(ptr noundef nonnull align 1 dereferenceable(1) %7)
  store ptr %15, ptr %6, align 8
  br label %16

16:                                               ; preds = %38, %11
  %17 = load ptr, ptr %5, align 8
  %18 = load ptr, ptr %6, align 8
  %19 = icmp ne ptr %17, %18
  br i1 %19, label %20, label %41

20:                                               ; preds = %16
  %21 = load ptr, ptr %5, align 8
  %22 = call noundef nonnull align 8 dereferenceable(8) ptr @_ZN4llvm6detail12DenseSetPairIPNS_8CallBaseEE8getFirstEv(ptr noundef nonnull align 8 dereferenceable(8) %21)
  %23 = load ptr, ptr %22, align 8
  %24 = load ptr, ptr %3, align 8
  %25 = call noundef zeroext i1 @_ZN4llvm12DenseMapInfoIPNS_8CallBaseEvE7isEqualEPKS1_S5_(ptr noundef %23, ptr noundef %24)
  br i1 %25, label %35, label %26

26:                                               ; preds = %20
  %27 = load ptr, ptr %5, align 8
  %28 = call noundef nonnull align 8 dereferenceable(8) ptr @_ZN4llvm6detail12DenseSetPairIPNS_8CallBaseEE8getFirstEv(ptr noundef nonnull align 8 dereferenceable(8) %27)
  %29 = load ptr, ptr %28, align 8
  %30 = load ptr, ptr %4, align 8
  %31 = call noundef zeroext i1 @_ZN4llvm12DenseMapInfoIPNS_8CallBaseEvE7isEqualEPKS1_S5_(ptr noundef %29, ptr noundef %30)
  br i1 %31, label %35, label %32

32:                                               ; preds = %26
  %33 = load ptr, ptr %5, align 8
  %34 = call noundef nonnull align 1 dereferenceable(1) ptr @_ZN4llvm6detail12DenseSetPairIPNS_8CallBaseEE9getSecondEv(ptr noundef nonnull align 8 dereferenceable(8) %33)
  br label %35

35:                                               ; preds = %32, %26, %20
  %36 = load ptr, ptr %5, align 8
  %37 = call noundef nonnull align 8 dereferenceable(8) ptr @_ZN4llvm6detail12DenseSetPairIPNS_8CallBaseEE8getFirstEv(ptr noundef nonnull align 8 dereferenceable(8) %36)
  br label %38

38:                                               ; preds = %35
  %39 = load ptr, ptr %5, align 8
  %40 = getelementptr inbounds %"class.llvm::detail::DenseSetPair.522", ptr %39, i32 1
  store ptr %40, ptr %5, align 8
  br label %16, !llvm.loop !20

41:                                               ; preds = %16, %10
  ret void
}

; Function Attrs: mustprogress nounwind uwtable
define linkonce_odr hidden noundef ptr @_ZNK4llvm25SmallVectorTemplateCommonIPNS_8CallBaseEvE10getFirstElEv(ptr noundef nonnull align 8 dereferenceable(16) %0) #1 comdat align 2 {
  %2 = alloca ptr, align 8
  store ptr %0, ptr %2, align 8
  %3 = load ptr, ptr %2, align 8
  %4 = getelementptr inbounds i8, ptr %3, i64 16
  ret ptr %4
}

; Function Attrs: mustprogress nounwind uwtable
define linkonce_odr hidden void @_ZN4llvm8DenseMapIPNS_8CallBaseENS_6detail13DenseSetEmptyENS_12DenseMapInfoIS2_vEENS3_12DenseSetPairIS2_EEED2Ev(ptr noundef nonnull align 8 dereferenceable(20) %0) unnamed_addr #1 comdat align 2 {
  %2 = alloca ptr, align 8
  store ptr %0, ptr %2, align 8
  %3 = load ptr, ptr %2, align 8
  call void @_ZN4llvm12DenseMapBaseINS_8DenseMapIPNS_8CallBaseENS_6detail13DenseSetEmptyENS_12DenseMapInfoIS3_vEENS4_12DenseSetPairIS3_EEEES3_S5_S7_S9_E10destroyAllEv(ptr noundef nonnull align 1 dereferenceable(1) %3)
  %4 = getelementptr inbounds nuw %"class.llvm::DenseMap.157", ptr %3, i32 0, i32 0
  %5 = load ptr, ptr %4, align 8
  %6 = getelementptr inbounds nuw %"class.llvm::DenseMap.157", ptr %3, i32 0, i32 3
  %7 = load i32, ptr %6, align 8
  %8 = zext i32 %7 to i64
  %9 = mul i64 8, %8
  call void @_ZN4llvm17deallocate_bufferEPvmm(ptr noundef %5, i64 noundef %9, i64 noundef 8)
  ret void
}

; Function Attrs: mustprogress nounwind uwtable
define linkonce_odr hidden noundef zeroext i1 @_ZNK4llvm25SmallVectorTemplateCommonIPNS_8CallBaseEvE7isSmallEv(ptr noundef nonnull align 8 dereferenceable(16) %0) #1 comdat align 2 {
  %2 = alloca ptr, align 8
  store ptr %0, ptr %2, align 8
  %3 = load ptr, ptr %2, align 8
  %4 = getelementptr inbounds nuw %"class.llvm::SmallVectorBase", ptr %3, i32 0, i32 0
  %5 = load ptr, ptr %4, align 8
  %6 = call noundef ptr @_ZNK4llvm25SmallVectorTemplateCommonIPNS_8CallBaseEvE10getFirstElEv(ptr noundef nonnull align 8 dereferenceable(16) %3)
  %7 = icmp eq ptr %5, %6
  ret i1 %7
}

; Function Attrs: mustprogress nounwind uwtable
define linkonce_odr hidden void @_ZN4llvm13AbstractStateD2Ev(ptr noundef nonnull align 8 dereferenceable(8) %0) unnamed_addr #1 comdat align 2 {
  %2 = alloca ptr, align 8
  store ptr %0, ptr %2, align 8
  ret void
}

; Function Attrs: mustprogress nounwind uwtable
define linkonce_odr hidden void @_ZN4llvm6detail12DenseSetImplIPNS_8CallBaseENS_8DenseMapIS3_NS0_13DenseSetEmptyENS_12DenseMapInfoIS3_vEENS0_12DenseSetPairIS3_EEEES7_ED2Ev(ptr noundef nonnull align 8 dereferenceable(24) %0) unnamed_addr #1 comdat align 2 {
  %2 = alloca ptr, align 8
  store ptr %0, ptr %2, align 8
  %3 = load ptr, ptr %2, align 8
  %4 = getelementptr inbounds nuw %"class.llvm::detail::DenseSetImpl.156", ptr %3, i32 0, i32 0
  call void @_ZN4llvm8DenseMapIPNS_8CallBaseENS_6detail13DenseSetEmptyENS_12DenseMapInfoIS2_vEENS3_12DenseSetPairIS2_EEED2Ev(ptr noundef nonnull align 8 dereferenceable(20) %4) #2
  ret void
}

; Function Attrs: mustprogress nounwind uwtable
define linkonce_odr hidden void @_ZN4llvm15SmallVectorImplIPNS_8CallBaseEED2Ev(ptr noundef nonnull align 8 dereferenceable(16) %0) unnamed_addr #1 comdat align 2 {
  %2 = alloca ptr, align 8
  store ptr %0, ptr %2, align 8
  %3 = load ptr, ptr %2, align 8
  %4 = call noundef zeroext i1 @_ZNK4llvm25SmallVectorTemplateCommonIPNS_8CallBaseEvE7isSmallEv(ptr noundef nonnull align 8 dereferenceable(16) %3)
  br i1 %4, label %7, label %5

5:                                                ; preds = %1
  %6 = call noundef ptr @_ZN4llvm25SmallVectorTemplateCommonIPNS_8CallBaseEvE5beginEv(ptr noundef nonnull align 8 dereferenceable(16) %3)
  call void @free(ptr noundef %6) #2
  br label %7

7:                                                ; preds = %5, %1
  ret void
}

; Function Attrs: mustprogress nounwind uwtable
define linkonce_odr hidden void @_ZN4llvm23SmallVectorTemplateBaseIPNS_8CallBaseELb1EE13destroy_rangeEPS2_S4_(ptr noundef %0, ptr noundef %1) #1 comdat align 2 {
  %3 = alloca ptr, align 8
  %4 = alloca ptr, align 8
  store ptr %0, ptr %3, align 8
  store ptr %1, ptr %4, align 8
  ret void
}

; Function Attrs: mustprogress nounwind uwtable
define linkonce_odr hidden noundef ptr @_ZN4llvm25SmallVectorTemplateCommonIPNS_8CallBaseEvE3endEv(ptr noundef nonnull align 8 dereferenceable(16) %0) #1 comdat align 2 {
  %2 = alloca ptr, align 8
  store ptr %0, ptr %2, align 8
  %3 = load ptr, ptr %2, align 8
  %4 = call noundef ptr @_ZN4llvm25SmallVectorTemplateCommonIPNS_8CallBaseEvE5beginEv(ptr noundef nonnull align 8 dereferenceable(16) %3)
  %5 = call noundef i64 @_ZNK4llvm15SmallVectorBaseIjE4sizeEv(ptr noundef nonnull align 8 dereferenceable(16) %3)
  %6 = getelementptr inbounds ptr, ptr %4, i64 %5
  ret ptr %6
}

; Function Attrs: mustprogress nounwind uwtable
define linkonce_odr hidden noundef ptr @_ZN4llvm25SmallVectorTemplateCommonIPNS_8CallBaseEvE5beginEv(ptr noundef nonnull align 8 dereferenceable(16) %0) #1 comdat align 2 {
  %2 = alloca ptr, align 8
  store ptr %0, ptr %2, align 8
  %3 = load ptr, ptr %2, align 8
  %4 = getelementptr inbounds nuw %"class.llvm::SmallVectorBase", ptr %3, i32 0, i32 0
  %5 = load ptr, ptr %4, align 8
  ret ptr %5
}

; Function Attrs: mustprogress nounwind uwtable
define linkonce_odr hidden void @_ZN4llvm16IntegerStateBaseIbLb1ELb0EED2Ev(ptr noundef nonnull align 8 dereferenceable(10) %0) unnamed_addr #1 comdat align 2 {
  %2 = alloca ptr, align 8
  store ptr %0, ptr %2, align 8
  %3 = load ptr, ptr %2, align 8
  call void @_ZN4llvm13AbstractStateD2Ev(ptr noundef nonnull align 8 dereferenceable(8) %3) #2
  ret void
}

; Function Attrs: mustprogress nounwind uwtable
define linkonce_odr hidden void @_ZN4llvm8DenseSetIPNS_8CallBaseENS_12DenseMapInfoIS2_vEEED2Ev(ptr noundef nonnull align 8 dereferenceable(24) %0) unnamed_addr #1 comdat align 2 {
  %2 = alloca ptr, align 8
  store ptr %0, ptr %2, align 8
  %3 = load ptr, ptr %2, align 8
  call void @_ZN4llvm6detail12DenseSetImplIPNS_8CallBaseENS_8DenseMapIS3_NS0_13DenseSetEmptyENS_12DenseMapInfoIS3_vEENS0_12DenseSetPairIS3_EEEES7_ED2Ev(ptr noundef nonnull align 8 dereferenceable(24) %3) #2
  ret void
}

; Function Attrs: mustprogress nounwind uwtable
define linkonce_odr hidden void @_ZN4llvm11SmallVectorIPNS_8CallBaseELj0EED2Ev(ptr noundef nonnull align 8 dereferenceable(16) %0) unnamed_addr #1 comdat align 2 {
  %2 = alloca ptr, align 8
  store ptr %0, ptr %2, align 8
  %3 = load ptr, ptr %2, align 8
  %4 = call noundef ptr @_ZN4llvm25SmallVectorTemplateCommonIPNS_8CallBaseEvE5beginEv(ptr noundef nonnull align 8 dereferenceable(16) %3)
  %5 = call noundef ptr @_ZN4llvm25SmallVectorTemplateCommonIPNS_8CallBaseEvE3endEv(ptr noundef nonnull align 8 dereferenceable(16) %3)
  call void @_ZN4llvm23SmallVectorTemplateBaseIPNS_8CallBaseELb1EE13destroy_rangeEPS2_S4_(ptr noundef %4, ptr noundef %5)
  call void @_ZN4llvm15SmallVectorImplIPNS_8CallBaseEED2Ev(ptr noundef nonnull align 8 dereferenceable(16) %3) #2
  ret void
}

; Function Attrs: mustprogress nounwind uwtable
define linkonce_odr hidden void @_ZN4llvm12BooleanStateD2Ev(ptr noundef nonnull align 8 dereferenceable(10) %0) unnamed_addr #1 comdat align 2 {
  %2 = alloca ptr, align 8
  store ptr %0, ptr %2, align 8
  %3 = load ptr, ptr %2, align 8
  call void @_ZN4llvm16IntegerStateBaseIbLb1ELb0EED2Ev(ptr noundef nonnull align 8 dereferenceable(10) %3) #2
  ret void
}

; Function Attrs: mustprogress nounwind uwtable
define linkonce_odr hidden void @_ZN4llvm9SetVectorIPNS_8CallBaseENS_11SmallVectorIS2_Lj0EEENS_8DenseSetIS2_NS_12DenseMapInfoIS2_vEEEELj0EED2Ev(ptr noundef nonnull align 8 dereferenceable(40) %0) unnamed_addr #1 comdat align 2 {
  %2 = alloca ptr, align 8
  store ptr %0, ptr %2, align 8
  %3 = load ptr, ptr %2, align 8
  %4 = getelementptr inbounds nuw %"class.llvm::SetVector.935", ptr %3, i32 0, i32 1
  call void @_ZN4llvm11SmallVectorIPNS_8CallBaseELj0EED2Ev(ptr noundef nonnull align 8 dereferenceable(16) %4) #2
  %5 = getelementptr inbounds nuw %"class.llvm::SetVector.935", ptr %3, i32 0, i32 0
  call void @_ZN4llvm8DenseSetIPNS_8CallBaseENS_12DenseMapInfoIS2_vEEED2Ev(ptr noundef nonnull align 8 dereferenceable(24) %5) #2
  ret void
}

; Function Attrs: mustprogress nounwind uwtable
define internal void @_ZN12_GLOBAL__N_125BooleanStateWithSetVectorIPN4llvm8CallBaseELb1EED2Ev(ptr noundef nonnull align 8 dereferenceable(56) %0) unnamed_addr #1 align 2 {
  %2 = alloca ptr, align 8
  store ptr %0, ptr %2, align 8
  %3 = load ptr, ptr %2, align 8
  store ptr getelementptr inbounds inrange(-16, 80) ({ [12 x ptr] }, ptr @_ZTVN12_GLOBAL__N_125BooleanStateWithSetVectorIPN4llvm8CallBaseELb1EEE, i32 0, i32 0, i32 2), ptr %3, align 8
  %4 = getelementptr inbounds nuw %"struct.(anonymous namespace)::BooleanStateWithSetVector.938", ptr %3, i32 0, i32 1
  call void @_ZN4llvm9SetVectorIPNS_8CallBaseENS_11SmallVectorIS2_Lj0EEENS_8DenseSetIS2_NS_12DenseMapInfoIS2_vEEEELj0EED2Ev(ptr noundef nonnull align 8 dereferenceable(40) %4) #2
  call void @_ZN4llvm12BooleanStateD2Ev(ptr noundef nonnull align 8 dereferenceable(10) %3) #2
  ret void
}

; Function Attrs: mustprogress nounwind uwtable
define internal void @_ZN12_GLOBAL__N_125BooleanStateWithSetVectorIPN4llvm8CallBaseELb1EED0Ev(ptr noundef nonnull align 8 dereferenceable(56) %0) unnamed_addr #1 align 2 {
  %2 = alloca ptr, align 8
  store ptr %0, ptr %2, align 8
  %3 = load ptr, ptr %2, align 8
  call void @_ZN12_GLOBAL__N_125BooleanStateWithSetVectorIPN4llvm8CallBaseELb1EED2Ev(ptr noundef nonnull align 8 dereferenceable(56) %3) #2
  call void @_ZdlPvm(ptr noundef %3, i64 noundef 56) #18
  ret void
}